; ModuleID = '55/477.c'
source_filename = "55/477.c"
target datalayout = "e-m:e-p270:32:32-p271:32:32-p272:64:64-i64:64-f80:128-n8:16:32:64-S128"
target triple = "x86_64-pc-linux-gnu"

@.str = private unnamed_addr constant [7 x i8] c"%d%s%d\00", align 1
@.str.1 = private unnamed_addr constant [2 x i8] c"0\00", align 1
@.str.2 = private unnamed_addr constant [3 x i8] c"%c\00", align 1

; Function Attrs: noinline nounwind uwtable
define dso_local i32 @main() #0 {
  %1 = alloca i32, align 4
  %2 = alloca [33 x i8], align 16
  %3 = alloca [33 x i8], align 16
  %4 = alloca [33 x i64], align 16
  %5 = alloca i32, align 4
  %6 = alloca i32, align 4
  %7 = alloca i32, align 4
  %8 = alloca i32, align 4
  %9 = alloca i32, align 4
  %10 = alloca i32, align 4
  store i32 0, i32* %1, align 4
  store i32 0, i32* %10, align 4
  store i32 0, i32* %8, align 4
  store i32 1, i32* %9, align 4
  store i32 0, i32* %10, align 4
  %11 = getelementptr inbounds [33 x i8], [33 x i8]* %2, i64 0, i64 0
  %12 = call i32 (i8*, ...) @__isoc99_scanf(i8* getelementptr inbounds ([7 x i8], [7 x i8]* @.str, i64 0, i64 0), i32* %5, i8* %11, i32* %6)
  %13 = getelementptr inbounds [33 x i8], [33 x i8]* %2, i64 0, i64 0
  %14 = call i64 @strlen(i8* %13) #4
  %15 = trunc i64 %14 to i32
  store i32 %15, i32* %7, align 4
  br label %16

16:                                               ; preds = %94, %0
  %17 = load i32, i32* %8, align 4
  %18 = load i32, i32* %7, align 4
  %19 = sub nsw i32 %18, 1
  %20 = icmp sle i32 %17, %19
  br i1 %20, label %21, label %97

21:                                               ; preds = %16
  %22 = load i32, i32* %5, align 4
  %23 = sitofp i32 %22 to double
  %24 = load i32, i32* %7, align 4
  %25 = load i32, i32* %8, align 4
  %26 = sub nsw i32 %24, %25
  %27 = sub nsw i32 %26, 1
  %28 = sitofp i32 %27 to double
  %29 = call double @pow(double %23, double %28) #5
  %30 = fptosi double %29 to i32
  store i32 %30, i32* %9, align 4
  %31 = load i32, i32* %8, align 4
  %32 = sext i32 %31 to i64
  %33 = getelementptr inbounds [33 x i8], [33 x i8]* %2, i64 0, i64 %32
  %34 = load i8, i8* %33, align 1
  %35 = sext i8 %34 to i32
  %36 = icmp sge i32 %35, 65
  br i1 %36, label %37, label %56

37:                                               ; preds = %21
  %38 = load i32, i32* %8, align 4
  %39 = sext i32 %38 to i64
  %40 = getelementptr inbounds [33 x i8], [33 x i8]* %2, i64 0, i64 %39
  %41 = load i8, i8* %40, align 1
  %42 = sext i8 %41 to i32
  %43 = icmp sle i32 %42, 90
  br i1 %43, label %44, label %56

44:                                               ; preds = %37
  %45 = load i32, i32* %10, align 4
  %46 = load i32, i32* %8, align 4
  %47 = sext i32 %46 to i64
  %48 = getelementptr inbounds [33 x i8], [33 x i8]* %2, i64 0, i64 %47
  %49 = load i8, i8* %48, align 1
  %50 = sext i8 %49 to i32
  %51 = sub nsw i32 %50, 65
  %52 = add nsw i32 %51, 10
  %53 = load i32, i32* %9, align 4
  %54 = mul nsw i32 %52, %53
  %55 = add nsw i32 %45, %54
  store i32 %55, i32* %10, align 4
  br label %94

56:                                               ; preds = %37, %21
  %57 = load i32, i32* %8, align 4
  %58 = sext i32 %57 to i64
  %59 = getelementptr inbounds [33 x i8], [33 x i8]* %2, i64 0, i64 %58
  %60 = load i8, i8* %59, align 1
  %61 = sext i8 %60 to i32
  %62 = icmp sge i32 %61, 97
  br i1 %62, label %63, label %82

63:                                               ; preds = %56
  %64 = load i32, i32* %8, align 4
  %65 = sext i32 %64 to i64
  %66 = getelementptr inbounds [33 x i8], [33 x i8]* %2, i64 0, i64 %65
  %67 = load i8, i8* %66, align 1
  %68 = sext i8 %67 to i32
  %69 = icmp sle i32 %68, 122
  br i1 %69, label %70, label %82

70:                                               ; preds = %63
  %71 = load i32, i32* %10, align 4
  %72 = load i32, i32* %8, align 4
  %73 = sext i32 %72 to i64
  %74 = getelementptr inbounds [33 x i8], [33 x i8]* %2, i64 0, i64 %73
  %75 = load i8, i8* %74, align 1
  %76 = sext i8 %75 to i32
  %77 = sub nsw i32 %76, 97
  %78 = add nsw i32 %77, 10
  %79 = load i32, i32* %9, align 4
  %80 = mul nsw i32 %78, %79
  %81 = add nsw i32 %71, %80
  store i32 %81, i32* %10, align 4
  br label %93

82:                                               ; preds = %63, %56
  %83 = load i32, i32* %10, align 4
  %84 = load i32, i32* %8, align 4
  %85 = sext i32 %84 to i64
  %86 = getelementptr inbounds [33 x i8], [33 x i8]* %2, i64 0, i64 %85
  %87 = load i8, i8* %86, align 1
  %88 = sext i8 %87 to i32
  %89 = sub nsw i32 %88, 48
  %90 = load i32, i32* %9, align 4
  %91 = mul nsw i32 %89, %90
  %92 = add nsw i32 %83, %91
  store i32 %92, i32* %10, align 4
  br label %93

93:                                               ; preds = %82, %70
  br label %94

94:                                               ; preds = %93, %44
  %95 = load i32, i32* %8, align 4
  %96 = add nsw i32 %95, 1
  store i32 %96, i32* %8, align 4
  store i32 1, i32* %9, align 4
  br label %16

97:                                               ; preds = %16
  %98 = load i32, i32* %10, align 4
  %99 = sext i32 %98 to i64
  %100 = getelementptr inbounds [33 x i64], [33 x i64]* %4, i64 0, i64 0
  store i64 %99, i64* %100, align 16
  %101 = load i32, i32* %10, align 4
  %102 = icmp eq i32 %101, 0
  br i1 %102, label %103, label %105

103:                                              ; preds = %97
  %104 = call i32 (i8*, ...) @printf(i8* getelementptr inbounds ([2 x i8], [2 x i8]* @.str.1, i64 0, i64 0))
  store i32 0, i32* %1, align 4
  br label %215

105:                                              ; preds = %97
  store i32 0, i32* %8, align 4
  br label %106

106:                                              ; preds = %113, %105
  %107 = load i32, i32* %8, align 4
  %108 = icmp sle i32 %107, 33
  br i1 %108, label %109, label %116

109:                                              ; preds = %106
  %110 = load i32, i32* %8, align 4
  %111 = sext i32 %110 to i64
  %112 = getelementptr inbounds [33 x i8], [33 x i8]* %3, i64 0, i64 %111
  store i8 0, i8* %112, align 1
  br label %113

113:                                              ; preds = %109
  %114 = load i32, i32* %8, align 4
  %115 = add nsw i32 %114, 1
  store i32 %115, i32* %8, align 4
  br label %106

116:                                              ; preds = %106
  store i32 0, i32* %8, align 4
  br label %117

117:                                              ; preds = %154, %116
  %118 = load i32, i32* %8, align 4
  %119 = sext i32 %118 to i64
  %120 = getelementptr inbounds [33 x i64], [33 x i64]* %4, i64 0, i64 %119
  %121 = load i64, i64* %120, align 8
  %122 = icmp ne i64 %121, 0
  br i1 %122, label %123, label %157

123:                                              ; preds = %117
  %124 = load i32, i32* %8, align 4
  %125 = sext i32 %124 to i64
  %126 = getelementptr inbounds [33 x i64], [33 x i64]* %4, i64 0, i64 %125
  %127 = load i64, i64* %126, align 8
  %128 = load i32, i32* %6, align 4
  %129 = sext i32 %128 to i64
  %130 = srem i64 %127, %129
  %131 = add nsw i64 %130, 1
  %132 = trunc i64 %131 to i8
  %133 = load i32, i32* %8, align 4
  %134 = sext i32 %133 to i64
  %135 = getelementptr inbounds [33 x i8], [33 x i8]* %3, i64 0, i64 %134
  store i8 %132, i8* %135, align 1
  %136 = load i32, i32* %8, align 4
  %137 = sext i32 %136 to i64
  %138 = getelementptr inbounds [33 x i64], [33 x i64]* %4, i64 0, i64 %137
  %139 = load i64, i64* %138, align 8
  %140 = load i32, i32* %8, align 4
  %141 = sext i32 %140 to i64
  %142 = getelementptr inbounds [33 x i8], [33 x i8]* %3, i64 0, i64 %141
  %143 = load i8, i8* %142, align 1
  %144 = sext i8 %143 to i64
  %145 = sub nsw i64 %139, %144
  %146 = add nsw i64 %145, 1
  %147 = load i32, i32* %6, align 4
  %148 = sext i32 %147 to i64
  %149 = sdiv i64 %146, %148
  %150 = load i32, i32* %8, align 4
  %151 = add nsw i32 %150, 1
  %152 = sext i32 %151 to i64
  %153 = getelementptr inbounds [33 x i64], [33 x i64]* %4, i64 0, i64 %152
  store i64 %149, i64* %153, align 8
  br label %154

154:                                              ; preds = %123
  %155 = load i32, i32* %8, align 4
  %156 = add nsw i32 %155, 1
  store i32 %156, i32* %8, align 4
  br label %117

157:                                              ; preds = %117
  %158 = getelementptr inbounds [33 x i8], [33 x i8]* %3, i64 0, i64 0
  %159 = call i64 @strlen(i8* %158) #4
  %160 = trunc i64 %159 to i32
  store i32 %160, i32* %7, align 4
  store i32 0, i32* %8, align 4
  br label %161

161:                                              ; preds = %211, %157
  %162 = load i32, i32* %8, align 4
  %163 = load i32, i32* %7, align 4
  %164 = sub nsw i32 %163, 1
  %165 = icmp sle i32 %162, %164
  br i1 %165, label %166, label %214

166:                                              ; preds = %161
  %167 = load i32, i32* %7, align 4
  %168 = sub nsw i32 %167, 1
  %169 = load i32, i32* %8, align 4
  %170 = sub nsw i32 %168, %169
  %171 = sext i32 %170 to i64
  %172 = getelementptr inbounds [33 x i8], [33 x i8]* %3, i64 0, i64 %171
  %173 = load i8, i8* %172, align 1
  %174 = sext i8 %173 to i32
  %175 = icmp sge i32 %174, 11
  br i1 %175, label %176, label %190

176:                                              ; preds = %166
  %177 = load i32, i32* %7, align 4
  %178 = sub nsw i32 %177, 1
  %179 = load i32, i32* %8, align 4
  %180 = sub nsw i32 %178, %179
  %181 = sext i32 %180 to i64
  %182 = getelementptr inbounds [33 x i8], [33 x i8]* %3, i64 0, i64 %181
  %183 = load i8, i8* %182, align 1
  %184 = sext i8 %183 to i32
  %185 = add nsw i32 %184, 54
  %186 = trunc i32 %185 to i8
  %187 = load i32, i32* %8, align 4
  %188 = sext i32 %187 to i64
  %189 = getelementptr inbounds [33 x i8], [33 x i8]* %2, i64 0, i64 %188
  store i8 %186, i8* %189, align 1
  br label %204

190:                                              ; preds = %166
  %191 = load i32, i32* %7, align 4
  %192 = sub nsw i32 %191, 1
  %193 = load i32, i32* %8, align 4
  %194 = sub nsw i32 %192, %193
  %195 = sext i32 %194 to i64
  %196 = getelementptr inbounds [33 x i8], [33 x i8]* %3, i64 0, i64 %195
  %197 = load i8, i8* %196, align 1
  %198 = sext i8 %197 to i32
  %199 = add nsw i32 %198, 47
  %200 = trunc i32 %199 to i8
  %201 = load i32, i32* %8, align 4
  %202 = sext i32 %201 to i64
  %203 = getelementptr inbounds [33 x i8], [33 x i8]* %2, i64 0, i64 %202
  store i8 %200, i8* %203, align 1
  br label %204

204:                                              ; preds = %190, %176
  %205 = load i32, i32* %8, align 4
  %206 = sext i32 %205 to i64
  %207 = getelementptr inbounds [33 x i8], [33 x i8]* %2, i64 0, i64 %206
  %208 = load i8, i8* %207, align 1
  %209 = sext i8 %208 to i32
  %210 = call i32 (i8*, ...) @printf(i8* getelementptr inbounds ([3 x i8], [3 x i8]* @.str.2, i64 0, i64 0), i32 %209)
  br label %211

211:                                              ; preds = %204
  %212 = load i32, i32* %8, align 4
  %213 = add nsw i32 %212, 1
  store i32 %213, i32* %8, align 4
  br label %161

214:                                              ; preds = %161
  store i32 0, i32* %1, align 4
  br label %215

215:                                              ; preds = %214, %103
  %216 = load i32, i32* %1, align 4
  ret i32 %216
}

declare dso_local i32 @__isoc99_scanf(i8*, ...) #1

; Function Attrs: nounwind readonly
declare dso_local i64 @strlen(i8*) #2

; Function Attrs: nounwind
declare dso_local double @pow(double, double) #3

declare dso_local i32 @printf(i8*, ...) #1


!llvm.module.flags = !{!0}
!llvm.ident = !{!1}

!0 = !{i32 1, !"wchar_size", i32 4}
!1 = !{!"clang version 10.0.0-4ubuntu1 "}
